target datalayout = "e-m:e-p270:32:32-p271:32:32-p272:64:64-i64:64-i128:128-f80:128-n8:16:32:64-S128"
target triple = "x86_64-pc-linux-gnu"

%struct.redisObject = type { i32, i32, ptr }
%struct.sdshdr8 = type { i8, i8, i8, [0 x i8] }
%struct.sdshdr16 = type <{ i16, i16, i8, [0 x i8] }>
%struct.sdshdr32 = type <{ i32, i32, i8, [0 x i8] }>
%struct.sdshdr64 = type <{ i64, i64, i8, [0 x i8] }>

@.str.2 = private unnamed_addr constant [5 x i8] c"db.c\00", align 1
@.str.3 = private unnamed_addr constant [22 x i8] c"o->type == OBJ_STRING\00", align 1

; Function Attrs: nounwind uwtable
define dso_local void @dbReplaceValueWithDictEntry(ptr noundef %0, ptr noundef %1, ptr noundef %2, ptr noundef %3) #0 {
  %5 = alloca ptr, align 8
  %6 = alloca ptr, align 8
  %7 = alloca ptr, align 8
  %8 = alloca ptr, align 8
  store ptr %0, ptr %5, align 8, !tbaa !12
  store ptr %1, ptr %6, align 8, !tbaa !5
  store ptr %2, ptr %7, align 8, !tbaa !5
  store ptr %3, ptr %8, align 8, !tbaa !27
  %9 = load ptr, ptr %5, align 8, !tbaa !12
  %10 = load ptr, ptr %6, align 8, !tbaa !5
  %11 = load ptr, ptr %7, align 8, !tbaa !5
  %12 = load ptr, ptr %8, align 8, !tbaa !27
  call void @dbSetValue(ptr noundef %9, ptr noundef %10, ptr noundef %11, i32 noundef 0, ptr noundef %12)
  ret void
}

; Function Attrs: inlinehint nounwind uwtable
define internal i64 @sdslen(ptr noundef %0) #4 {
  %2 = alloca i64, align 8
  %3 = alloca ptr, align 8
  %4 = alloca i8, align 1
  %5 = alloca i32, align 4
  store ptr %0, ptr %3, align 8, !tbaa !78
  call void @llvm.lifetime.start.p0(i64 1, ptr %4) #15
  %6 = load ptr, ptr %3, align 8, !tbaa !78
  %7 = getelementptr inbounds i8, ptr %6, i64 -1
  %8 = load i8, ptr %7, align 1, !tbaa !80
  store i8 %8, ptr %4, align 1, !tbaa !80
  %9 = load i8, ptr %4, align 1, !tbaa !80
  %10 = zext i8 %9 to i32
  %11 = and i32 %10, 7
  switch i32 %11, label %40 [
    i32 0, label %12
    i32 1, label %17
    i32 2, label %23
    i32 3, label %29
    i32 4, label %35
  ]

12:                                               ; preds = %1
  %13 = load i8, ptr %4, align 1, !tbaa !80
  %14 = zext i8 %13 to i32
  %15 = ashr i32 %14, 3
  %16 = sext i32 %15 to i64
  store i64 %16, ptr %2, align 8
  store i32 1, ptr %5, align 4
  br label %41

17:                                               ; preds = %1
  %18 = load ptr, ptr %3, align 8, !tbaa !78
  %19 = getelementptr inbounds i8, ptr %18, i64 -3
  %20 = getelementptr inbounds nuw %struct.sdshdr8, ptr %19, i32 0, i32 0
  %21 = load i8, ptr %20, align 1, !tbaa !80
  %22 = zext i8 %21 to i64
  store i64 %22, ptr %2, align 8
  store i32 1, ptr %5, align 4
  br label %41

23:                                               ; preds = %1
  %24 = load ptr, ptr %3, align 8, !tbaa !78
  %25 = getelementptr inbounds i8, ptr %24, i64 -5
  %26 = getelementptr inbounds nuw %struct.sdshdr16, ptr %25, i32 0, i32 0
  %27 = load i16, ptr %26, align 1, !tbaa !84
  %28 = zext i16 %27 to i64
  store i64 %28, ptr %2, align 8
  store i32 1, ptr %5, align 4
  br label %41

29:                                               ; preds = %1
  %30 = load ptr, ptr %3, align 8, !tbaa !78
  %31 = getelementptr inbounds i8, ptr %30, i64 -9
  %32 = getelementptr inbounds nuw %struct.sdshdr32, ptr %31, i32 0, i32 0
  %33 = load i32, ptr %32, align 1, !tbaa !14
  %34 = zext i32 %33 to i64
  store i64 %34, ptr %2, align 8
  store i32 1, ptr %5, align 4
  br label %41

35:                                               ; preds = %1
  %36 = load ptr, ptr %3, align 8, !tbaa !78
  %37 = getelementptr inbounds i8, ptr %36, i64 -17
  %38 = getelementptr inbounds nuw %struct.sdshdr64, ptr %37, i32 0, i32 0
  %39 = load i64, ptr %38, align 1, !tbaa !10
  store i64 %39, ptr %2, align 8
  store i32 1, ptr %5, align 4
  br label %41

40:                                               ; preds = %1
  store i64 0, ptr %2, align 8
  store i32 1, ptr %5, align 4
  br label %41

41:                                               ; preds = %40, %35, %29, %23, %17, %12
  call void @llvm.lifetime.end.p0(i64 1, ptr %4) #15
  %42 = load i64, ptr %2, align 8
  ret i64 %42
}

; Function Attrs: nounwind uwtable
define dso_local ptr @dbUnshareStringValueWithDictEntry(ptr noundef %0, ptr noundef %1, ptr noundef %2, ptr noundef %3) #0 {
  %5 = alloca ptr, align 8
  %6 = alloca ptr, align 8
  %7 = alloca ptr, align 8
  %8 = alloca ptr, align 8
  %9 = alloca ptr, align 8
  store ptr %0, ptr %5, align 8, !tbaa !12
  store ptr %1, ptr %6, align 8, !tbaa !5
  store ptr %2, ptr %7, align 8, !tbaa !5
  store ptr %3, ptr %8, align 8, !tbaa !27
  %10 = load ptr, ptr %7, align 8, !tbaa !5
  %11 = load i32, ptr %10, align 8
  %12 = and i32 %11, 15
  %13 = icmp eq i32 %12, 0
  %14 = xor i1 %13, true
  %15 = xor i1 %14, true
  %16 = zext i1 %15 to i32
  %17 = sext i32 %16 to i64
  %18 = call i64 @llvm.expect.i64(i64 %17, i64 1)
  %19 = icmp ne i64 %18, 0
  br i1 %19, label %20, label %21

20:                                               ; preds = %4
  br label %23

21:                                               ; preds = %4
  call void @_serverAssert(ptr noundef @.str.3, ptr noundef @.str.2, i32 noundef 543)
  call void @abort() #16
  unreachable

22:                                               ; No predecessors!
  br label %23

23:                                               ; preds = %22, %20
  %24 = load ptr, ptr %7, align 8, !tbaa !5
  %25 = getelementptr inbounds nuw %struct.redisObject, ptr %24, i32 0, i32 1
  %26 = load i32, ptr %25, align 4, !tbaa !89
  %27 = icmp ne i32 %26, 1
  br i1 %27, label %34, label %28

28:                                               ; preds = %23
  %29 = load ptr, ptr %7, align 8, !tbaa !5
  %30 = load i32, ptr %29, align 8
  %31 = lshr i32 %30, 4
  %32 = and i32 %31, 15
  %33 = icmp ne i32 %32, 0
  br i1 %33, label %34, label %50

34:                                               ; preds = %28, %23
  call void @llvm.lifetime.start.p0(i64 8, ptr %9) #15
  %35 = load ptr, ptr %7, align 8, !tbaa !5
  %36 = call ptr @getDecodedObject(ptr noundef %35)
  store ptr %36, ptr %9, align 8, !tbaa !5
  %37 = load ptr, ptr %9, align 8, !tbaa !5
  %38 = getelementptr inbounds nuw %struct.redisObject, ptr %37, i32 0, i32 2
  %39 = load ptr, ptr %38, align 8, !tbaa !25
  %40 = load ptr, ptr %9, align 8, !tbaa !5
  %41 = getelementptr inbounds nuw %struct.redisObject, ptr %40, i32 0, i32 2
  %42 = load ptr, ptr %41, align 8, !tbaa !25
  %43 = call i64 @sdslen(ptr noundef %42)
  %44 = call ptr @createRawStringObject(ptr noundef %39, i64 noundef %43)
  store ptr %44, ptr %7, align 8, !tbaa !5
  %45 = load ptr, ptr %9, align 8, !tbaa !5
  call void @decrRefCount(ptr noundef %45)
  %46 = load ptr, ptr %5, align 8, !tbaa !12
  %47 = load ptr, ptr %6, align 8, !tbaa !5
  %48 = load ptr, ptr %7, align 8, !tbaa !5
  %49 = load ptr, ptr %8, align 8, !tbaa !27
  call void @dbReplaceValueWithDictEntry(ptr noundef %46, ptr noundef %47, ptr noundef %48, ptr noundef %49)
  call void @llvm.lifetime.end.p0(i64 8, ptr %9) #15
  br label %50

50:                                               ; preds = %34, %28
  %51 = load ptr, ptr %7, align 8, !tbaa !5
  ret ptr %51
}