; Function Attrs: nounwind uwtable
define dso_local ptr @dbUnshareStringValueWithDictEntry(ptr noundef %0, ptr noundef %1, ptr noundef %2, ptr noundef %3) local_unnamed_addr #0 {
  %5 = load i32, ptr %2, align 8
  %6 = and i32 %5, 15
  %7 = icmp eq i32 %6, 0
  br i1 %7, label %9, label %8, !prof !73

8:                                                ; preds = %4
  tail call void @_serverAssert(ptr noundef nonnull @.str.3, ptr noundef nonnull @.str.2, i32 noundef 543) #20
  tail call void @abort() #21
  unreachable

9:                                                ; preds = %4
  %10 = getelementptr inbounds nuw i8, ptr %2, i64 4
  %11 = load i32, ptr %10, align 4, !tbaa !88
  %.not = icmp eq i32 %11, 1
  %12 = and i32 %5, 240
  %.not12 = icmp eq i32 %12, 0
  %or.cond = and i1 %.not12, %.not
  br i1 %or.cond, label %40, label %13

13:                                               ; preds = %9
  %14 = tail call ptr @getDecodedObject(ptr noundef nonnull %2) #20
  %15 = getelementptr inbounds nuw i8, ptr %14, i64 8
  %16 = load ptr, ptr %15, align 8, !tbaa !18
  %17 = getelementptr inbounds i8, ptr %16, i64 -1
  %18 = load i8, ptr %17, align 1, !tbaa !76
  %19 = zext i8 %18 to i32
  %20 = and i32 %19, 7
  switch i32 %20, label %sdslen.exit [
    i32 0, label %21
    i32 1, label %24
    i32 2, label %28
    i32 3, label %32
    i32 4, label %36
  ]

21:                                               ; preds = %13
  %22 = lshr i32 %19, 3
  %23 = zext nneg i32 %22 to i64
  br label %sdslen.exit

24:                                               ; preds = %13
  %25 = getelementptr inbounds i8, ptr %16, i64 -3
  %26 = load i8, ptr %25, align 1, !tbaa !76
  %27 = zext i8 %26 to i64
  br label %sdslen.exit

28:                                               ; preds = %13
  %29 = getelementptr inbounds i8, ptr %16, i64 -5
  %30 = load i16, ptr %29, align 1, !tbaa !77
  %31 = zext i16 %30 to i64
  br label %sdslen.exit

32:                                               ; preds = %13
  %33 = getelementptr inbounds i8, ptr %16, i64 -9
  %34 = load i32, ptr %33, align 1, !tbaa !79
  %35 = zext i32 %34 to i64
  br label %sdslen.exit

36:                                               ; preds = %13
  %37 = getelementptr inbounds i8, ptr %16, i64 -17
  %38 = load i64, ptr %37, align 1, !tbaa !17
  br label %sdslen.exit

sdslen.exit:                                      ; preds = %13, %21, %24, %28, %32, %36
  %.0.i = phi i64 [ %38, %36 ], [ %35, %32 ], [ %31, %28 ], [ %27, %24 ], [ %23, %21 ], [ 0, %13 ]
  %39 = tail call ptr @createRawStringObject(ptr noundef nonnull %16, i64 noundef %.0.i) #20
  tail call void @decrRefCount(ptr noundef nonnull %14) #20
  tail call fastcc void @dbSetValue(ptr noundef %0, ptr noundef %1, ptr noundef %39, i32 noundef 0, ptr noundef %3)
  br label %40

40:                                               ; preds = %9, %sdslen.exit
  %.0 = phi ptr [ %39, %sdslen.exit ], [ %2, %9 ]
  ret ptr %.0
}